; Function Attrs: mustprogress uwtable
define hidden void @_ZN3sat14cut_simplifier14add_dont_caresERK6vectorINS_7cut_setELb1EjE(ptr noundef nonnull align 8 dereferenceable(600) %this, ptr nocapture noundef nonnull readonly align 8 dereferenceable(8) %cuts) local_unnamed_addr #3 align 2 {
entry:
  %0 = load ptr, ptr %this, align 8
  %m_cut_dont_cares = getelementptr inbounds i8, ptr %0, i64 208
  %1 = load i8, ptr %m_cut_dont_cares, align 8
  %2 = and i8 %1, 1
  %tobool.not = icmp eq i8 %2, 0
  br i1 %tobool.not, label %if.end, label %if.then

if.then:                                          ; preds = %entry
  tail call void @_ZN3sat14cut_simplifier9cuts2binsERK6vectorINS_7cut_setELb1EjE(ptr noundef nonnull align 8 dereferenceable(600) %this, ptr noundef nonnull align 8 dereferenceable(8) %cuts)
  tail call void @_ZN3sat14cut_simplifier15bins2dont_caresEv(ptr noundef nonnull align 8 dereferenceable(600) %this)
  tail call void @_ZN3sat14cut_simplifier15dont_cares2cutsERK6vectorINS_7cut_setELb1EjE(ptr noundef nonnull align 8 dereferenceable(600) %this, ptr noundef nonnull align 8 dereferenceable(8) %cuts)
  %.pre = load ptr, ptr %this, align 8
  br label %if.end

if.end:                                           ; preds = %if.then, %entry
  %3 = phi ptr [ %.pre, %if.then ], [ %0, %entry ]
  %m_cut_redundancies = getelementptr inbounds i8, ptr %3, i64 209
  %4 = load i8, ptr %m_cut_redundancies, align 1
  %5 = and i8 %4, 1
  %tobool4.not = icmp eq i8 %5, 0
  br i1 %tobool4.not, label %if.end6, label %if.then5

if.then5:                                         ; preds = %if.end
  %m_aig_cuts = getelementptr inbounds i8, ptr %this, i64 72
  tail call void @_ZN3sat8aig_cuts8simplifyEv(ptr noundef nonnull align 8 dereferenceable(480) %m_aig_cuts)
  br label %if.end6

if.end6:                                          ; preds = %if.then5, %if.end
  ret void
}